target datalayout = "e-m:e-p270:32:32-p271:32:32-p272:64:64-i64:64-i128:128-f80:128-n8:16:32:64-S128"
target triple = "x86_64-pc-linux-gnu"

@.str.11 = private unnamed_addr constant [12 x i8] c"plugin_name\00", align 1

; Function Attrs: nounwind uwtable
define dso_local ptr @plugin_get_name(ptr noundef %0) #0 {
  %2 = alloca ptr, align 8
  %3 = alloca ptr, align 8
  store ptr %0, ptr %3, align 8
  %4 = load ptr, ptr %3, align 8
  %5 = icmp ne ptr %4, null
  br i1 %5, label %6, label %9

6:                                                ; preds = %1
  %7 = load ptr, ptr %3, align 8
  %8 = call ptr @dlsym(ptr noundef %7, ptr noundef @.str.11) #7
  store ptr %8, ptr %2, align 8
  br label %10

9:                                                ; preds = %1
  store ptr null, ptr %2, align 8
  br label %10

10:                                               ; preds = %9, %6
  %11 = load ptr, ptr %2, align 8
  ret ptr %11
}