; Function Attrs: nounwind uwtable
define dso_local ptr @plugin_get_name(ptr noundef %0) local_unnamed_addr #0 {
  %.not = icmp eq ptr %0, null
  br i1 %.not, label %4, label %2

2:                                                ; preds = %1
  %3 = tail call ptr @dlsym(ptr noundef nonnull %0, ptr noundef nonnull @.str.11) #10
  br label %4

4:                                                ; preds = %1, %2
  %.0 = phi ptr [ %3, %2 ], [ null, %1 ]
  ret ptr %.0
}